target datalayout = "e-m:e-p270:32:32-p271:32:32-p272:64:64-i64:64-i128:128-f80:128-n8:16:32:64-S128"
target triple = "x86_64-pc-linux-gnu"

%struct.BM3DContext = type { ptr, float, i32, i32, i32, i32, i32, float, float, i32, i32, i32, i32, i32, i32, [4 x i32], [4 x i32], i32, i32, [32 x %struct.SliceContext], %struct.FFFrameSync, i32, ptr, ptr, ptr, ptr }
%struct.SliceContext = type { ptr, ptr, ptr, ptr, ptr, ptr, ptr, ptr, ptr, ptr, ptr, ptr, ptr, ptr, ptr, ptr, ptr, ptr, ptr, [256 x %struct.PosPairCode], i32, ptr }
%struct.PosPairCode = type { double, i32, i32 }
%struct.FFFrameSync = type { ptr, ptr, i32, %struct.AVRational, i64, ptr, ptr, i32, i32, i8, i8, ptr, i32, i32, i32, i32 }
%struct.AVRational = type { i32, i32 }

; Function Attrs: alwaysinline nounwind willreturn memory(none) uwtable
define internal zeroext i8 @av_clip_uint8_c(i32 noundef %0) #11 {
  %2 = alloca i8, align 1
  %3 = alloca i32, align 4
  store i32 %0, ptr %3, align 4, !tbaa !43
  %4 = load i32, ptr %3, align 4, !tbaa !43
  %5 = and i32 %4, -256
  %6 = icmp ne i32 %5, 0
  br i1 %6, label %7, label %12

7:                                                ; preds = %1
  %8 = load i32, ptr %3, align 4, !tbaa !43
  %9 = xor i32 %8, -1
  %10 = ashr i32 %9, 31
  %11 = trunc i32 %10 to i8
  store i8 %11, ptr %2, align 1
  br label %15

12:                                               ; preds = %1
  %13 = load i32, ptr %3, align 4, !tbaa !43
  %14 = trunc i32 %13 to i8
  store i8 %14, ptr %2, align 1
  br label %15

15:                                               ; preds = %12, %7
  %16 = load i8, ptr %2, align 1
  ret i8 %16
}

; Function Attrs: nounwind uwtable
define internal void @do_output(ptr noundef %0, ptr noundef %1, i32 noundef %2, i32 noundef %3, i32 noundef %4) #1 {
  %6 = alloca ptr, align 8
  %7 = alloca ptr, align 8
  %8 = alloca i32, align 4
  %9 = alloca i32, align 4
  %10 = alloca i32, align 4
  %11 = alloca i32, align 4
  %12 = alloca i32, align 4
  %13 = alloca i32, align 4
  %14 = alloca i32, align 4
  %15 = alloca i32, align 4
  %16 = alloca ptr, align 8
  %17 = alloca float, align 4
  %18 = alloca float, align 4
  %19 = alloca i32, align 4
  %20 = alloca ptr, align 8
  %21 = alloca float, align 4
  %22 = alloca float, align 4
  store ptr %0, ptr %6, align 8, !tbaa !22
  store ptr %1, ptr %7, align 8, !tbaa !91
  store i32 %2, ptr %8, align 4, !tbaa !43
  store i32 %3, ptr %9, align 4, !tbaa !43
  store i32 %4, ptr %10, align 4, !tbaa !43
  call void @llvm.lifetime.start.p0(i64 4, ptr %11) #12
  %23 = load ptr, ptr %6, align 8, !tbaa !22
  %24 = getelementptr inbounds nuw %struct.BM3DContext, ptr %23, i32 0, i32 16
  %25 = load i32, ptr %9, align 4, !tbaa !43
  %26 = sext i32 %25 to i64
  %27 = getelementptr inbounds [4 x i32], ptr %24, i64 0, i64 %26
  %28 = load i32, ptr %27, align 4, !tbaa !43
  store i32 %28, ptr %11, align 4, !tbaa !43
  call void @llvm.lifetime.start.p0(i64 4, ptr %12) #12
  %29 = load ptr, ptr %6, align 8, !tbaa !22
  %30 = getelementptr inbounds nuw %struct.BM3DContext, ptr %29, i32 0, i32 15
  %31 = load i32, ptr %9, align 4, !tbaa !43
  %32 = sext i32 %31 to i64
  %33 = getelementptr inbounds [4 x i32], ptr %30, i64 0, i64 %32
  %34 = load i32, ptr %33, align 4, !tbaa !43
  store i32 %34, ptr %12, align 4, !tbaa !43
  call void @llvm.lifetime.start.p0(i64 4, ptr %13) #12
  store i32 0, ptr %13, align 4, !tbaa !43
  br label %35

35:                                               ; preds = %110, %5
  %36 = load i32, ptr %13, align 4, !tbaa !43
  %37 = load i32, ptr %11, align 4, !tbaa !43
  %38 = icmp slt i32 %36, %37
  br i1 %38, label %40, label %39

39:                                               ; preds = %35
  store i32 2, ptr %14, align 4
  call void @llvm.lifetime.end.p0(i64 4, ptr %13) #12
  br label %113

40:                                               ; preds = %35
  call void @llvm.lifetime.start.p0(i64 4, ptr %15) #12
  store i32 0, ptr %15, align 4, !tbaa !43
  br label %41

41:                                               ; preds = %106, %40
  %42 = load i32, ptr %15, align 4, !tbaa !43
  %43 = load i32, ptr %12, align 4, !tbaa !43
  %44 = icmp slt i32 %42, %43
  br i1 %44, label %46, label %45

45:                                               ; preds = %41
  store i32 5, ptr %14, align 4
  call void @llvm.lifetime.end.p0(i64 4, ptr %15) #12
  br label %109

46:                                               ; preds = %41
  call void @llvm.lifetime.start.p0(i64 8, ptr %16) #12
  %47 = load ptr, ptr %7, align 8, !tbaa !91
  %48 = load i32, ptr %13, align 4, !tbaa !43
  %49 = load i32, ptr %8, align 4, !tbaa !43
  %50 = mul nsw i32 %48, %49
  %51 = sext i32 %50 to i64
  %52 = getelementptr inbounds i8, ptr %47, i64 %51
  store ptr %52, ptr %16, align 8, !tbaa !91
  call void @llvm.lifetime.start.p0(i64 4, ptr %17) #12
  store float 0.000000e+00, ptr %17, align 4, !tbaa !126
  call void @llvm.lifetime.start.p0(i64 4, ptr %18) #12
  store float 0.000000e+00, ptr %18, align 4, !tbaa !126
  call void @llvm.lifetime.start.p0(i64 4, ptr %19) #12
  store i32 0, ptr %19, align 4, !tbaa !43
  br label %53

53:                                               ; preds = %92, %46
  %54 = load i32, ptr %19, align 4, !tbaa !43
  %55 = load i32, ptr %10, align 4, !tbaa !43
  %56 = icmp slt i32 %54, %55
  br i1 %56, label %58, label %57

57:                                               ; preds = %53
  store i32 8, ptr %14, align 4
  call void @llvm.lifetime.end.p0(i64 4, ptr %19) #12
  br label %95

58:                                               ; preds = %53
  call void @llvm.lifetime.start.p0(i64 8, ptr %20) #12
  %59 = load ptr, ptr %6, align 8, !tbaa !22
  %60 = getelementptr inbounds nuw %struct.BM3DContext, ptr %59, i32 0, i32 19
  %61 = load i32, ptr %19, align 4, !tbaa !43
  %62 = sext i32 %61 to i64
  %63 = getelementptr inbounds [32 x %struct.SliceContext], ptr %60, i64 0, i64 %62
  store ptr %63, ptr %20, align 8, !tbaa !45
  call void @llvm.lifetime.start.p0(i64 4, ptr %21) #12
  %64 = load ptr, ptr %20, align 8, !tbaa !45
  %65 = getelementptr inbounds nuw %struct.SliceContext, ptr %64, i32 0, i32 17
  %66 = load ptr, ptr %65, align 8, !tbaa !104
  %67 = load i32, ptr %13, align 4, !tbaa !43
  %68 = load i32, ptr %12, align 4, !tbaa !43
  %69 = mul nsw i32 %67, %68
  %70 = load i32, ptr %15, align 4, !tbaa !43
  %71 = add nsw i32 %69, %70
  %72 = sext i32 %71 to i64
  %73 = getelementptr inbounds float, ptr %66, i64 %72
  %74 = load float, ptr %73, align 4, !tbaa !126
  store float %74, ptr %21, align 4, !tbaa !126
  call void @llvm.lifetime.start.p0(i64 4, ptr %22) #12
  %75 = load ptr, ptr %20, align 8, !tbaa !45
  %76 = getelementptr inbounds nuw %struct.SliceContext, ptr %75, i32 0, i32 18
  %77 = load ptr, ptr %76, align 8, !tbaa !109
  %78 = load i32, ptr %13, align 4, !tbaa !43
  %79 = load i32, ptr %12, align 4, !tbaa !43
  %80 = mul nsw i32 %78, %79
  %81 = load i32, ptr %15, align 4, !tbaa !43
  %82 = add nsw i32 %80, %81
  %83 = sext i32 %82 to i64
  %84 = getelementptr inbounds float, ptr %77, i64 %83
  %85 = load float, ptr %84, align 4, !tbaa !126
  store float %85, ptr %22, align 4, !tbaa !126
  %86 = load float, ptr %21, align 4, !tbaa !126
  %87 = load float, ptr %18, align 4, !tbaa !126
  %88 = fadd nsz float %87, %86
  store float %88, ptr %18, align 4, !tbaa !126
  %89 = load float, ptr %22, align 4, !tbaa !126
  %90 = load float, ptr %17, align 4, !tbaa !126
  %91 = fadd nsz float %90, %89
  store float %91, ptr %17, align 4, !tbaa !126
  call void @llvm.lifetime.end.p0(i64 4, ptr %22) #12
  call void @llvm.lifetime.end.p0(i64 4, ptr %21) #12
  call void @llvm.lifetime.end.p0(i64 8, ptr %20) #12
  br label %92

92:                                               ; preds = %58
  %93 = load i32, ptr %19, align 4, !tbaa !43
  %94 = add nsw i32 %93, 1
  store i32 %94, ptr %19, align 4, !tbaa !43
  br label %53, !llvm.loop !206

95:                                               ; preds = %57
  %96 = load float, ptr %18, align 4, !tbaa !126
  %97 = load float, ptr %17, align 4, !tbaa !126
  %98 = fdiv nsz float %96, %97
  %99 = call i64 @llvm.lrint.i64.f32(float %98)
  %100 = trunc i64 %99 to i32
  %101 = call zeroext i8 @av_clip_uint8_c(i32 noundef %100) #13
  %102 = load ptr, ptr %16, align 8, !tbaa !91
  %103 = load i32, ptr %15, align 4, !tbaa !43
  %104 = sext i32 %103 to i64
  %105 = getelementptr inbounds i8, ptr %102, i64 %104
  store i8 %101, ptr %105, align 1, !tbaa !207
  call void @llvm.lifetime.end.p0(i64 4, ptr %18) #12
  call void @llvm.lifetime.end.p0(i64 4, ptr %17) #12
  call void @llvm.lifetime.end.p0(i64 8, ptr %16) #12
  br label %106

106:                                              ; preds = %95
  %107 = load i32, ptr %15, align 4, !tbaa !43
  %108 = add nsw i32 %107, 1
  store i32 %108, ptr %15, align 4, !tbaa !43
  br label %41, !llvm.loop !208

109:                                              ; preds = %45
  br label %110

110:                                              ; preds = %109
  %111 = load i32, ptr %13, align 4, !tbaa !43
  %112 = add nsw i32 %111, 1
  store i32 %112, ptr %13, align 4, !tbaa !43
  br label %35, !llvm.loop !209

113:                                              ; preds = %39
  call void @llvm.lifetime.end.p0(i64 4, ptr %12) #12
  call void @llvm.lifetime.end.p0(i64 4, ptr %11) #12
  ret void
}