; Function Attrs: nofree norecurse nosync nounwind memory(read, argmem: readwrite, inaccessiblemem: none) uwtable
define internal void @do_output(ptr noundef readonly captures(none) %0, ptr noundef writeonly captures(none) %1, i32 noundef %2, i32 noundef %3, i32 noundef %4) #11 {
  %6 = getelementptr inbounds nuw i8, ptr %0, i64 80
  %7 = sext i32 %3 to i64
  %8 = getelementptr inbounds [4 x i32], ptr %6, i64 0, i64 %7
  %9 = load i32, ptr %8, align 4, !tbaa !49
  %10 = getelementptr inbounds nuw i8, ptr %0, i64 64
  %11 = getelementptr inbounds [4 x i32], ptr %10, i64 0, i64 %7
  %12 = load i32, ptr %11, align 4, !tbaa !49
  %13 = icmp sgt i32 %9, 0
  br i1 %13, label %.preheader.lr.ph, label %._crit_edge

.preheader.lr.ph:                                 ; preds = %5
  %14 = icmp sgt i32 %12, 0
  %15 = getelementptr inbounds nuw i8, ptr %0, i64 104
  %16 = tail call i64 @llvm.lrint.i64.f32(float 0x7FF8000000000000)
  %17 = trunc i64 %16 to i32
  %.not.i = icmp ult i32 %17, 256
  %isnotneg.i = icmp sgt i32 %17, -1
  %18 = sext i1 %isnotneg.i to i8
  %19 = trunc i64 %16 to i8
  %.0.i = select i1 %.not.i, i8 %19, i8 %18
  br i1 %14, label %.preheader.lr.ph.split.us, label %._crit_edge

.preheader.lr.ph.split.us:                        ; preds = %.preheader.lr.ph
  %20 = icmp sgt i32 %4, 0
  %21 = sext i32 %2 to i64
  br i1 %20, label %.preheader.us.us.preheader, label %.preheader.us.preheader

.preheader.us.preheader:                          ; preds = %.preheader.lr.ph.split.us
  %22 = zext nneg i32 %12 to i64
  %wide.trip.count = zext nneg i32 %9 to i64
  br label %.preheader.us

.preheader.us.us.preheader:                       ; preds = %.preheader.lr.ph.split.us
  %wide.trip.count65 = zext nneg i32 %9 to i64
  %wide.trip.count60 = zext nneg i32 %12 to i64
  %wide.trip.count55 = zext nneg i32 %4 to i64
  br label %.preheader.us.us

.preheader.us.us:                                 ; preds = %.preheader.us.us.preheader, %._crit_edge44.split.us.us.us
  %indvars.iv62 = phi i64 [ 0, %.preheader.us.us.preheader ], [ %indvars.iv.next63, %._crit_edge44.split.us.us.us ]
  %23 = mul nsw i64 %indvars.iv62, %21
  %24 = getelementptr inbounds i8, ptr %1, i64 %23
  %25 = trunc i64 %indvars.iv62 to i32
  %26 = mul i32 %12, %25
  %27 = zext i32 %26 to i64
  br label %.lr.ph.us.us.us

.lr.ph.us.us.us:                                  ; preds = %._crit_edge.us.us.us, %.preheader.us.us
  %indvars.iv57 = phi i64 [ %indvars.iv.next58, %._crit_edge.us.us.us ], [ 0, %.preheader.us.us ]
  %28 = add nuw nsw i64 %indvars.iv57, %27
  br label %29

29:                                               ; preds = %29, %.lr.ph.us.us.us
  %indvars.iv = phi i64 [ %indvars.iv.next, %29 ], [ 0, %.lr.ph.us.us.us ]
  %.03539.us.us.us = phi float [ %39, %29 ], [ 0.000000e+00, %.lr.ph.us.us.us ]
  %.03638.us.us.us = phi float [ %40, %29 ], [ 0.000000e+00, %.lr.ph.us.us.us ]
  %30 = getelementptr inbounds nuw [32 x %struct.SliceContext], ptr %15, i64 0, i64 %indvars.iv
  %31 = getelementptr inbounds nuw i8, ptr %30, i64 136
  %32 = load ptr, ptr %31, align 8, !tbaa !88
  %33 = getelementptr inbounds nuw float, ptr %32, i64 %28
  %34 = load float, ptr %33, align 4, !tbaa !120
  %35 = getelementptr inbounds nuw i8, ptr %30, i64 144
  %36 = load ptr, ptr %35, align 8, !tbaa !93
  %37 = getelementptr inbounds nuw float, ptr %36, i64 %28
  %38 = load float, ptr %37, align 4, !tbaa !120
  %39 = fadd nsz float %.03539.us.us.us, %34
  %40 = fadd nsz float %.03638.us.us.us, %38
  %indvars.iv.next = add nuw nsw i64 %indvars.iv, 1
  %exitcond56.not = icmp eq i64 %indvars.iv.next, %wide.trip.count55
  br i1 %exitcond56.not, label %._crit_edge.us.us.us, label %29, !llvm.loop !182

._crit_edge.us.us.us:                             ; preds = %29
  %41 = fdiv nsz float %39, %40
  %42 = tail call i64 @llvm.lrint.i64.f32(float %41)
  %43 = trunc i64 %42 to i32
  %.not.i.us.us.us = icmp ult i32 %43, 256
  %isnotneg.i.us.us.us = icmp sgt i32 %43, -1
  %44 = sext i1 %isnotneg.i.us.us.us to i8
  %45 = trunc i64 %42 to i8
  %.0.i.us.us.us = select i1 %.not.i.us.us.us, i8 %45, i8 %44
  %46 = getelementptr inbounds nuw i8, ptr %24, i64 %indvars.iv57
  store i8 %.0.i.us.us.us, ptr %46, align 1, !tbaa !183
  %indvars.iv.next58 = add nuw nsw i64 %indvars.iv57, 1
  %exitcond61.not = icmp eq i64 %indvars.iv.next58, %wide.trip.count60
  br i1 %exitcond61.not, label %._crit_edge44.split.us.us.us, label %.lr.ph.us.us.us, !llvm.loop !184

._crit_edge44.split.us.us.us:                     ; preds = %._crit_edge.us.us.us
  %indvars.iv.next63 = add nuw nsw i64 %indvars.iv62, 1
  %exitcond66.not = icmp eq i64 %indvars.iv.next63, %wide.trip.count65
  br i1 %exitcond66.not, label %._crit_edge, label %.preheader.us.us, !llvm.loop !185

.preheader.us:                                    ; preds = %.preheader.us.preheader, %.preheader.us
  %indvar = phi i64 [ 0, %.preheader.us.preheader ], [ %indvar.next, %.preheader.us ]
  %47 = mul nsw i64 %indvar, %21
  %scevgep = getelementptr i8, ptr %1, i64 %47
  tail call void @llvm.memset.p0.i64(ptr align 1 %scevgep, i8 %.0.i, i64 %22, i1 false), !tbaa !183
  %indvar.next = add nuw nsw i64 %indvar, 1
  %exitcond.not = icmp eq i64 %indvar.next, %wide.trip.count
  br i1 %exitcond.not, label %._crit_edge, label %.preheader.us, !llvm.loop !185

._crit_edge:                                      ; preds = %.preheader.us, %._crit_edge44.split.us.us.us, %.preheader.lr.ph, %5
  ret void
}